
/home/blessed/Programowanie/blessOS/ex/src/common/printk.o:     file format elf32-i386


Disassembly of section .text:

00000000 <parse_hex>:

#include <common/types.h>
#include <common/printk.h>

static void parse_hex(char *buf, int num)
{
   0:	55                   	push   %ebp
   1:	89 e5                	mov    %esp,%ebp
   3:	53                   	push   %ebx
   4:	83 ec 10             	sub    $0x10,%esp
    int i = 7;
   7:	c7 45 f8 07 00 00 00 	movl   $0x7,-0x8(%ebp)
    while (i-- >= 0)
   e:	eb 24                	jmp    34 <parse_hex+0x34>
    {
        *buf++ = "0123456789abcdef"[(num >> (i * 4)) & 0x0f];
  10:	8b 45 f8             	mov    -0x8(%ebp),%eax
  13:	c1 e0 02             	shl    $0x2,%eax
  16:	8b 55 0c             	mov    0xc(%ebp),%edx
  19:	89 d3                	mov    %edx,%ebx
  1b:	89 c1                	mov    %eax,%ecx
  1d:	d3 fb                	sar    %cl,%ebx
  1f:	89 d8                	mov    %ebx,%eax
  21:	83 e0 0f             	and    $0xf,%eax
  24:	0f b6 90 00 00 00 00 	movzbl 0x0(%eax),%edx
			27: R_386_32	.rodata
  2b:	8b 45 08             	mov    0x8(%ebp),%eax
  2e:	88 10                	mov    %dl,(%eax)
  30:	83 45 08 01          	addl   $0x1,0x8(%ebp)
#include <common/printk.h>

static void parse_hex(char *buf, int num)
{
    int i = 7;
    while (i-- >= 0)
  34:	8b 45 f8             	mov    -0x8(%ebp),%eax
  37:	f7 d0                	not    %eax
  39:	c1 e8 1f             	shr    $0x1f,%eax
  3c:	83 6d f8 01          	subl   $0x1,-0x8(%ebp)
  40:	84 c0                	test   %al,%al
  42:	75 cc                	jne    10 <parse_hex+0x10>
    {
        *buf++ = "0123456789abcdef"[(num >> (i * 4)) & 0x0f];
    }
}
  44:	83 c4 10             	add    $0x10,%esp
  47:	5b                   	pop    %ebx
  48:	5d                   	pop    %ebp
  49:	c3                   	ret    

0000004a <parse_num>:

static void parse_num(char *buf, int num, int base)
{
  4a:	55                   	push   %ebp
  4b:	89 e5                	mov    %esp,%ebp
  4d:	83 ec 28             	sub    $0x28,%esp
    u32int n = num / base;
  50:	8b 45 0c             	mov    0xc(%ebp),%eax
  53:	89 c2                	mov    %eax,%edx
  55:	c1 fa 1f             	sar    $0x1f,%edx
  58:	f7 7d 10             	idivl  0x10(%ebp)
  5b:	89 45 f4             	mov    %eax,-0xc(%ebp)
    int r = num % base;
  5e:	8b 45 0c             	mov    0xc(%ebp),%eax
  61:	89 c2                	mov    %eax,%edx
  63:	c1 fa 1f             	sar    $0x1f,%edx
  66:	f7 7d 10             	idivl  0x10(%ebp)
  69:	89 55 f0             	mov    %edx,-0x10(%ebp)
    if (r < 0)
  6c:	83 7d f0 00          	cmpl   $0x0,-0x10(%ebp)
  70:	79 0a                	jns    7c <parse_num+0x32>
    {
        r += base;
  72:	8b 45 10             	mov    0x10(%ebp),%eax
  75:	01 45 f0             	add    %eax,-0x10(%ebp)
        --n;
  78:	83 6d f4 01          	subl   $0x1,-0xc(%ebp)
    }

    if (num >= base)
  7c:	8b 45 0c             	mov    0xc(%ebp),%eax
  7f:	3b 45 10             	cmp    0x10(%ebp),%eax
  82:	7c 19                	jl     9d <parse_num+0x53>
        parse_num(buf, n, base);
  84:	8b 45 f4             	mov    -0xc(%ebp),%eax
  87:	8b 55 10             	mov    0x10(%ebp),%edx
  8a:	89 54 24 08          	mov    %edx,0x8(%esp)
  8e:	89 44 24 04          	mov    %eax,0x4(%esp)
  92:	8b 45 08             	mov    0x8(%ebp),%eax
  95:	89 04 24             	mov    %eax,(%esp)
  98:	e8 ad ff ff ff       	call   4a <parse_num>

    *buf++ = "0123456789"[r];
  9d:	8b 45 f0             	mov    -0x10(%ebp),%eax
  a0:	05 11 00 00 00       	add    $0x11,%eax
			a1: R_386_32	.rodata
  a5:	0f b6 10             	movzbl (%eax),%edx
  a8:	8b 45 08             	mov    0x8(%ebp),%eax
  ab:	88 10                	mov    %dl,(%eax)
  ad:	83 45 08 01          	addl   $0x1,0x8(%ebp)
}
  b1:	c9                   	leave  
  b2:	c3                   	ret    

000000b3 <printk_get_level>:

int printk_get_level(const char *buffer)
{
  b3:	55                   	push   %ebp
  b4:	89 e5                	mov    %esp,%ebp
    if (buffer[0] == KERN_SOH_ASCII && buffer[1])
  b6:	8b 45 08             	mov    0x8(%ebp),%eax
  b9:	0f b6 00             	movzbl (%eax),%eax
  bc:	3c 01                	cmp    $0x1,%al
  be:	75 36                	jne    f6 <printk_get_level+0x43>
  c0:	8b 45 08             	mov    0x8(%ebp),%eax
  c3:	83 c0 01             	add    $0x1,%eax
  c6:	0f b6 00             	movzbl (%eax),%eax
  c9:	84 c0                	test   %al,%al
  cb:	74 29                	je     f6 <printk_get_level+0x43>
    {
        switch (buffer[1])
  cd:	8b 45 08             	mov    0x8(%ebp),%eax
  d0:	83 c0 01             	add    $0x1,%eax
  d3:	0f b6 00             	movzbl (%eax),%eax
  d6:	0f be c0             	movsbl %al,%eax
  d9:	83 f8 30             	cmp    $0x30,%eax
  dc:	7c 18                	jl     f6 <printk_get_level+0x43>
  de:	83 f8 37             	cmp    $0x37,%eax
  e1:	7e 05                	jle    e8 <printk_get_level+0x35>
  e3:	83 f8 64             	cmp    $0x64,%eax
  e6:	75 0e                	jne    f6 <printk_get_level+0x43>
        case '4':
        case '5':
        case '6':
        case '7':
        case 'd':
            return buffer[1];
  e8:	8b 45 08             	mov    0x8(%ebp),%eax
  eb:	83 c0 01             	add    $0x1,%eax
  ee:	0f b6 00             	movzbl (%eax),%eax
  f1:	0f be c0             	movsbl %al,%eax
  f4:	eb 05                	jmp    fb <printk_get_level+0x48>
        }
    }

    return 0;
  f6:	b8 00 00 00 00       	mov    $0x0,%eax
}
  fb:	5d                   	pop    %ebp
  fc:	c3                   	ret    

000000fd <vsprintf>:

int vsprintf(char *buf, const char *fmt, va_list args)
{
  fd:	55                   	push   %ebp
  fe:	89 e5                	mov    %esp,%ebp
 100:	83 ec 28             	sub    $0x28,%esp
    int i;
    int index;
    char *s;

    index = 0;
 103:	c7 45 f0 00 00 00 00 	movl   $0x0,-0x10(%ebp)

    for (i = 0; fmt[i] != '\0'; ++i)
 10a:	c7 45 f4 00 00 00 00 	movl   $0x0,-0xc(%ebp)
 111:	e9 e9 01 00 00       	jmp    2ff <vsprintf+0x202>
    {
        if ((fmt[i] != '%') && (fmt[i] != '\\'))
 116:	8b 55 f4             	mov    -0xc(%ebp),%edx
 119:	8b 45 0c             	mov    0xc(%ebp),%eax
 11c:	01 d0                	add    %edx,%eax
 11e:	0f b6 00             	movzbl (%eax),%eax
 121:	3c 25                	cmp    $0x25,%al
 123:	74 2d                	je     152 <vsprintf+0x55>
 125:	8b 55 f4             	mov    -0xc(%ebp),%edx
 128:	8b 45 0c             	mov    0xc(%ebp),%eax
 12b:	01 d0                	add    %edx,%eax
 12d:	0f b6 00             	movzbl (%eax),%eax
 130:	3c 5c                	cmp    $0x5c,%al
 132:	74 1e                	je     152 <vsprintf+0x55>
        {
            buf[index++] = fmt[i];
 134:	8b 55 f0             	mov    -0x10(%ebp),%edx
 137:	8b 45 08             	mov    0x8(%ebp),%eax
 13a:	01 c2                	add    %eax,%edx
 13c:	8b 4d f4             	mov    -0xc(%ebp),%ecx
 13f:	8b 45 0c             	mov    0xc(%ebp),%eax
 142:	01 c8                	add    %ecx,%eax
 144:	0f b6 00             	movzbl (%eax),%eax
 147:	88 02                	mov    %al,(%edx)
 149:	83 45 f0 01          	addl   $0x1,-0x10(%ebp)
            continue;
 14d:	e9 a9 01 00 00       	jmp    2fb <vsprintf+0x1fe>
        }
        else if (fmt[i] == '%')
 152:	8b 55 f4             	mov    -0xc(%ebp),%edx
 155:	8b 45 0c             	mov    0xc(%ebp),%eax
 158:	01 d0                	add    %edx,%eax
 15a:	0f b6 00             	movzbl (%eax),%eax
 15d:	3c 25                	cmp    $0x25,%al
 15f:	0f 85 0e 01 00 00    	jne    273 <vsprintf+0x176>
        {
            switch(fmt[++i])
 165:	83 45 f4 01          	addl   $0x1,-0xc(%ebp)
 169:	8b 55 f4             	mov    -0xc(%ebp),%edx
 16c:	8b 45 0c             	mov    0xc(%ebp),%eax
 16f:	01 d0                	add    %edx,%eax
 171:	0f b6 00             	movzbl (%eax),%eax
 174:	0f be c0             	movsbl %al,%eax
 177:	83 f8 70             	cmp    $0x70,%eax
 17a:	0f 84 81 00 00 00    	je     201 <vsprintf+0x104>
 180:	83 f8 70             	cmp    $0x70,%eax
 183:	7f 1c                	jg     1a1 <vsprintf+0xa4>
 185:	83 f8 63             	cmp    $0x63,%eax
 188:	74 5c                	je     1e6 <vsprintf+0xe9>
 18a:	83 f8 64             	cmp    $0x64,%eax
 18d:	0f 84 8b 00 00 00    	je     21e <vsprintf+0x121>
 193:	83 f8 25             	cmp    $0x25,%eax
 196:	0f 84 a7 00 00 00    	je     243 <vsprintf+0x146>
 19c:	e9 b3 00 00 00       	jmp    254 <vsprintf+0x157>
 1a1:	83 f8 73             	cmp    $0x73,%eax
 1a4:	74 0a                	je     1b0 <vsprintf+0xb3>
 1a6:	83 f8 78             	cmp    $0x78,%eax
 1a9:	74 56                	je     201 <vsprintf+0x104>
 1ab:	e9 a4 00 00 00       	jmp    254 <vsprintf+0x157>
            {
            case 's':
                s = (char *)va_arg(args, char *);
 1b0:	83 45 10 04          	addl   $0x4,0x10(%ebp)
 1b4:	8b 45 10             	mov    0x10(%ebp),%eax
 1b7:	8b 40 fc             	mov    -0x4(%eax),%eax
 1ba:	89 45 ec             	mov    %eax,-0x14(%ebp)
                while (*s)
 1bd:	eb 18                	jmp    1d7 <vsprintf+0xda>
                {
                    buf[index++] = *s++;
 1bf:	8b 55 f0             	mov    -0x10(%ebp),%edx
 1c2:	8b 45 08             	mov    0x8(%ebp),%eax
 1c5:	01 c2                	add    %eax,%edx
 1c7:	8b 45 ec             	mov    -0x14(%ebp),%eax
 1ca:	0f b6 00             	movzbl (%eax),%eax
 1cd:	88 02                	mov    %al,(%edx)
 1cf:	83 45 f0 01          	addl   $0x1,-0x10(%ebp)
 1d3:	83 45 ec 01          	addl   $0x1,-0x14(%ebp)
        {
            switch(fmt[++i])
            {
            case 's':
                s = (char *)va_arg(args, char *);
                while (*s)
 1d7:	8b 45 ec             	mov    -0x14(%ebp),%eax
 1da:	0f b6 00             	movzbl (%eax),%eax
 1dd:	84 c0                	test   %al,%al
 1df:	75 de                	jne    1bf <vsprintf+0xc2>
                {
                    buf[index++] = *s++;
                }
                break;
 1e1:	e9 88 00 00 00       	jmp    26e <vsprintf+0x171>

            case 'c':
                buf[index++] = (char)va_arg(fmt, char);
 1e6:	8b 55 f0             	mov    -0x10(%ebp),%edx
 1e9:	8b 45 08             	mov    0x8(%ebp),%eax
 1ec:	01 c2                	add    %eax,%edx
 1ee:	83 45 0c 04          	addl   $0x4,0xc(%ebp)
 1f2:	8b 45 0c             	mov    0xc(%ebp),%eax
 1f5:	0f b6 40 fc          	movzbl -0x4(%eax),%eax
 1f9:	88 02                	mov    %al,(%edx)
 1fb:	83 45 f0 01          	addl   $0x1,-0x10(%ebp)
                break;
 1ff:	eb 6d                	jmp    26e <vsprintf+0x171>

            case 'p':
            case 'x':
                parse_hex(buf, (u32int)va_arg(args, u32int));
 201:	83 45 10 04          	addl   $0x4,0x10(%ebp)
 205:	8b 45 10             	mov    0x10(%ebp),%eax
 208:	83 e8 04             	sub    $0x4,%eax
 20b:	8b 00                	mov    (%eax),%eax
 20d:	89 44 24 04          	mov    %eax,0x4(%esp)
 211:	8b 45 08             	mov    0x8(%ebp),%eax
 214:	89 04 24             	mov    %eax,(%esp)
 217:	e8 e4 fd ff ff       	call   0 <parse_hex>
                break;
 21c:	eb 50                	jmp    26e <vsprintf+0x171>

            case 'd':
                parse_num(buf, (u32int)va_arg(args, u32int), 10);
 21e:	83 45 10 04          	addl   $0x4,0x10(%ebp)
 222:	8b 45 10             	mov    0x10(%ebp),%eax
 225:	83 e8 04             	sub    $0x4,%eax
 228:	8b 00                	mov    (%eax),%eax
 22a:	c7 44 24 08 0a 00 00 	movl   $0xa,0x8(%esp)
 231:	00 
 232:	89 44 24 04          	mov    %eax,0x4(%esp)
 236:	8b 45 08             	mov    0x8(%ebp),%eax
 239:	89 04 24             	mov    %eax,(%esp)
 23c:	e8 09 fe ff ff       	call   4a <parse_num>
                break;
 241:	eb 2b                	jmp    26e <vsprintf+0x171>

            case '%':
                buf[index++] = '%';
 243:	8b 55 f0             	mov    -0x10(%ebp),%edx
 246:	8b 45 08             	mov    0x8(%ebp),%eax
 249:	01 d0                	add    %edx,%eax
 24b:	c6 00 25             	movb   $0x25,(%eax)
 24e:	83 45 f0 01          	addl   $0x1,-0x10(%ebp)
                break;
 252:	eb 1a                	jmp    26e <vsprintf+0x171>

            default:
                buf[index++] = fmt[i];
 254:	8b 55 f0             	mov    -0x10(%ebp),%edx
 257:	8b 45 08             	mov    0x8(%ebp),%eax
 25a:	01 c2                	add    %eax,%edx
 25c:	8b 4d f4             	mov    -0xc(%ebp),%ecx
 25f:	8b 45 0c             	mov    0xc(%ebp),%eax
 262:	01 c8                	add    %ecx,%eax
 264:	0f b6 00             	movzbl (%eax),%eax
 267:	88 02                	mov    %al,(%edx)
 269:	83 45 f0 01          	addl   $0x1,-0x10(%ebp)
                break;
 26d:	90                   	nop
            }

            continue;
 26e:	e9 88 00 00 00       	jmp    2fb <vsprintf+0x1fe>
        }

        switch(fmt[++i])
 273:	83 45 f4 01          	addl   $0x1,-0xc(%ebp)
 277:	8b 55 f4             	mov    -0xc(%ebp),%edx
 27a:	8b 45 0c             	mov    0xc(%ebp),%eax
 27d:	01 d0                	add    %edx,%eax
 27f:	0f b6 00             	movzbl (%eax),%eax
 282:	0f be c0             	movsbl %al,%eax
 285:	83 e8 5c             	sub    $0x5c,%eax
 288:	83 f8 18             	cmp    $0x18,%eax
 28b:	77 6e                	ja     2fb <vsprintf+0x1fe>
 28d:	8b 04 85 1c 00 00 00 	mov    0x1c(,%eax,4),%eax
			290: R_386_32	.rodata
 294:	ff e0                	jmp    *%eax
        {
        case 'a':
            buf[index++] = '\a'; break;
 296:	8b 55 f0             	mov    -0x10(%ebp),%edx
 299:	8b 45 08             	mov    0x8(%ebp),%eax
 29c:	01 d0                	add    %edx,%eax
 29e:	c6 00 07             	movb   $0x7,(%eax)
 2a1:	83 45 f0 01          	addl   $0x1,-0x10(%ebp)
 2a5:	eb 54                	jmp    2fb <vsprintf+0x1fe>
        case 'b':
            buf[index++] = '\b'; break;
 2a7:	8b 55 f0             	mov    -0x10(%ebp),%edx
 2aa:	8b 45 08             	mov    0x8(%ebp),%eax
 2ad:	01 d0                	add    %edx,%eax
 2af:	c6 00 08             	movb   $0x8,(%eax)
 2b2:	83 45 f0 01          	addl   $0x1,-0x10(%ebp)
 2b6:	eb 43                	jmp    2fb <vsprintf+0x1fe>
        case 't':
            buf[index++] = '\t'; break;
 2b8:	8b 55 f0             	mov    -0x10(%ebp),%edx
 2bb:	8b 45 08             	mov    0x8(%ebp),%eax
 2be:	01 d0                	add    %edx,%eax
 2c0:	c6 00 09             	movb   $0x9,(%eax)
 2c3:	83 45 f0 01          	addl   $0x1,-0x10(%ebp)
 2c7:	eb 32                	jmp    2fb <vsprintf+0x1fe>
        case 'n':
            buf[index++] = '\n'; break;
 2c9:	8b 55 f0             	mov    -0x10(%ebp),%edx
 2cc:	8b 45 08             	mov    0x8(%ebp),%eax
 2cf:	01 d0                	add    %edx,%eax
 2d1:	c6 00 0a             	movb   $0xa,(%eax)
 2d4:	83 45 f0 01          	addl   $0x1,-0x10(%ebp)
 2d8:	eb 21                	jmp    2fb <vsprintf+0x1fe>
        case 'r':
            buf[index++] = '\r'; break;
 2da:	8b 55 f0             	mov    -0x10(%ebp),%edx
 2dd:	8b 45 08             	mov    0x8(%ebp),%eax
 2e0:	01 d0                	add    %edx,%eax
 2e2:	c6 00 0d             	movb   $0xd,(%eax)
 2e5:	83 45 f0 01          	addl   $0x1,-0x10(%ebp)
 2e9:	eb 10                	jmp    2fb <vsprintf+0x1fe>
        case '\\':
            buf[index++] = '\\'; break;
 2eb:	8b 55 f0             	mov    -0x10(%ebp),%edx
 2ee:	8b 45 08             	mov    0x8(%ebp),%eax
 2f1:	01 d0                	add    %edx,%eax
 2f3:	c6 00 5c             	movb   $0x5c,(%eax)
 2f6:	83 45 f0 01          	addl   $0x1,-0x10(%ebp)
 2fa:	90                   	nop
    int index;
    char *s;

    index = 0;

    for (i = 0; fmt[i] != '\0'; ++i)
 2fb:	83 45 f4 01          	addl   $0x1,-0xc(%ebp)
 2ff:	8b 55 f4             	mov    -0xc(%ebp),%edx
 302:	8b 45 0c             	mov    0xc(%ebp),%eax
 305:	01 d0                	add    %edx,%eax
 307:	0f b6 00             	movzbl (%eax),%eax
 30a:	84 c0                	test   %al,%al
 30c:	0f 85 04 fe ff ff    	jne    116 <vsprintf+0x19>
        case '\\':
            buf[index++] = '\\'; break;
        }
    }

    buf[index] = '\0';
 312:	8b 55 f0             	mov    -0x10(%ebp),%edx
 315:	8b 45 08             	mov    0x8(%ebp),%eax
 318:	01 d0                	add    %edx,%eax
 31a:	c6 00 00             	movb   $0x0,(%eax)
    va_end(args);
 31d:	c7 45 10 00 00 00 00 	movl   $0x0,0x10(%ebp)

    return index;
 324:	8b 45 f0             	mov    -0x10(%ebp),%eax
}
 327:	c9                   	leave  
 328:	c3                   	ret    

00000329 <printk>:

int printk(const char *fmt, ...)
{
 329:	55                   	push   %ebp
 32a:	89 e5                	mov    %esp,%ebp
 32c:	81 ec 28 04 00 00    	sub    $0x428,%esp
    int len;
    va_list args;
    char buf[1024];

    va_start(args, fmt);
 332:	8d 45 0c             	lea    0xc(%ebp),%eax
 335:	89 45 f4             	mov    %eax,-0xc(%ebp)
    len = vsprintf(buf, fmt, args);
 338:	8b 45 08             	mov    0x8(%ebp),%eax
 33b:	8b 55 f4             	mov    -0xc(%ebp),%edx
 33e:	89 54 24 08          	mov    %edx,0x8(%esp)
 342:	89 44 24 04          	mov    %eax,0x4(%esp)
 346:	8d 85 f0 fb ff ff    	lea    -0x410(%ebp),%eax
 34c:	89 04 24             	mov    %eax,(%esp)
 34f:	e8 fc ff ff ff       	call   350 <printk+0x27>
			350: R_386_PC32	vsprintf
 354:	89 45 f0             	mov    %eax,-0x10(%ebp)
    va_end(args);
 357:	c7 45 f4 00 00 00 00 	movl   $0x0,-0xc(%ebp)



    return len;
 35e:	8b 45 f0             	mov    -0x10(%ebp),%eax
}
 361:	c9                   	leave  
 362:	c3                   	ret    
