
/home/blessed/Programowanie/blessOS/ex/src/common/string.o:     file format elf32-i386


Disassembly of section .text:

00000000 <memcpy>:
/* This file is part of the GLEG engine (GPL v2 or later), see LICENSE.html */

#include "common/string.h"

void* memcpy(void *dst, void *src, size_t n)
{
   0:	55                   	push   %ebp
   1:	89 e5                	mov    %esp,%ebp
   3:	83 ec 10             	sub    $0x10,%esp
    const char *sp = (const char *)src;
   6:	8b 45 0c             	mov    0xc(%ebp),%eax
   9:	89 45 fc             	mov    %eax,-0x4(%ebp)
    char *dp = (char *)dst;
   c:	8b 45 08             	mov    0x8(%ebp),%eax
   f:	89 45 f8             	mov    %eax,-0x8(%ebp)

    for (; n > 0; --n)
  12:	eb 17                	jmp    2b <memcpy+0x2b>
        *dp++ = *sp++;
  14:	8b 45 fc             	mov    -0x4(%ebp),%eax
  17:	0f b6 10             	movzbl (%eax),%edx
  1a:	8b 45 f8             	mov    -0x8(%ebp),%eax
  1d:	88 10                	mov    %dl,(%eax)
  1f:	83 45 f8 01          	addl   $0x1,-0x8(%ebp)
  23:	83 45 fc 01          	addl   $0x1,-0x4(%ebp)
void* memcpy(void *dst, void *src, size_t n)
{
    const char *sp = (const char *)src;
    char *dp = (char *)dst;

    for (; n > 0; --n)
  27:	83 6d 10 01          	subl   $0x1,0x10(%ebp)
  2b:	83 7d 10 00          	cmpl   $0x0,0x10(%ebp)
  2f:	7f e3                	jg     14 <memcpy+0x14>
        *dp++ = *sp++;

    return dst;
  31:	8b 45 08             	mov    0x8(%ebp),%eax
}
  34:	c9                   	leave  
  35:	c3                   	ret    

00000036 <memset>:

void *memset(void *dst, char val, size_t n)
{
  36:	55                   	push   %ebp
  37:	89 e5                	mov    %esp,%ebp
  39:	83 ec 14             	sub    $0x14,%esp
  3c:	8b 45 0c             	mov    0xc(%ebp),%eax
  3f:	88 45 ec             	mov    %al,-0x14(%ebp)
    char *dp = (char *)dst;
  42:	8b 45 08             	mov    0x8(%ebp),%eax
  45:	89 45 fc             	mov    %eax,-0x4(%ebp)

    for (; n > 0; --n)
  48:	eb 11                	jmp    5b <memset+0x25>
    {
        *dp++ = val;
  4a:	8b 45 fc             	mov    -0x4(%ebp),%eax
  4d:	0f b6 55 ec          	movzbl -0x14(%ebp),%edx
  51:	88 10                	mov    %dl,(%eax)
  53:	83 45 fc 01          	addl   $0x1,-0x4(%ebp)

void *memset(void *dst, char val, size_t n)
{
    char *dp = (char *)dst;

    for (; n > 0; --n)
  57:	83 6d 10 01          	subl   $0x1,0x10(%ebp)
  5b:	83 7d 10 00          	cmpl   $0x0,0x10(%ebp)
  5f:	7f e9                	jg     4a <memset+0x14>
    {
        *dp++ = val;
    }

    return dst;
  61:	8b 45 08             	mov    0x8(%ebp),%eax
}
  64:	c9                   	leave  
  65:	c3                   	ret    
