
/home/blessed/Programowanie/blessOS/ex/src/console/console.o:     file format elf32-i386


Disassembly of section .text:

00000000 <scroll_down>:
#include <console/console.h>

static int csr_x, csr_y;

static void scroll_down()
{
   0:	55                   	push   %ebp
   1:	89 e5                	mov    %esp,%ebp
   3:	83 ec 28             	sub    $0x28,%esp
    int i;
    u16int *vga_mem = (u16int *)VRAM_START;
   6:	c7 45 f0 00 80 0b 00 	movl   $0xb8000,-0x10(%ebp)
    u16int blank = 0x20 | (((0 << 4) | (15 & 0xff)) << 8);
   d:	66 c7 45 ee 20 0f    	movw   $0xf20,-0x12(%ebp)

    memcpy(vga_mem, vga_mem + CONSOLE_WIDTH,
  13:	8b 45 f0             	mov    -0x10(%ebp),%eax
  16:	05 a0 00 00 00       	add    $0xa0,%eax
  1b:	c7 44 24 08 00 0f 00 	movl   $0xf00,0x8(%esp)
  22:	00 
  23:	89 44 24 04          	mov    %eax,0x4(%esp)
  27:	8b 45 f0             	mov    -0x10(%ebp),%eax
  2a:	89 04 24             	mov    %eax,(%esp)
  2d:	e8 fc ff ff ff       	call   2e <scroll_down+0x2e>
			2e: R_386_PC32	memcpy
           (CONSOLE_HEIGHT - 1) * CONSOLE_WIDTH * CONSOLE_CHAR_SIZE);

    for (i = 0; i < CONSOLE_WIDTH; ++i)
  32:	c7 45 f4 00 00 00 00 	movl   $0x0,-0xc(%ebp)
  39:	eb 1c                	jmp    57 <scroll_down+0x57>
    {
        vga_mem[CONSOLE_WIDTH * (CONSOLE_HEIGHT - 1) + i] = blank;
  3b:	8b 45 f4             	mov    -0xc(%ebp),%eax
  3e:	05 80 07 00 00       	add    $0x780,%eax
  43:	01 c0                	add    %eax,%eax
  45:	89 c2                	mov    %eax,%edx
  47:	8b 45 f0             	mov    -0x10(%ebp),%eax
  4a:	01 c2                	add    %eax,%edx
  4c:	0f b7 45 ee          	movzwl -0x12(%ebp),%eax
  50:	66 89 02             	mov    %ax,(%edx)
    u16int blank = 0x20 | (((0 << 4) | (15 & 0xff)) << 8);

    memcpy(vga_mem, vga_mem + CONSOLE_WIDTH,
           (CONSOLE_HEIGHT - 1) * CONSOLE_WIDTH * CONSOLE_CHAR_SIZE);

    for (i = 0; i < CONSOLE_WIDTH; ++i)
  53:	83 45 f4 01          	addl   $0x1,-0xc(%ebp)
  57:	83 7d f4 4f          	cmpl   $0x4f,-0xc(%ebp)
  5b:	7e de                	jle    3b <scroll_down+0x3b>
    {
        vga_mem[CONSOLE_WIDTH * (CONSOLE_HEIGHT - 1) + i] = blank;
    }
}
  5d:	c9                   	leave  
  5e:	c3                   	ret    

0000005f <set_cursor>:

void set_cursor(int x, int y)
{
  5f:	55                   	push   %ebp
  60:	89 e5                	mov    %esp,%ebp
  62:	83 ec 28             	sub    $0x28,%esp
    u16int position;
    csr_x = x;
  65:	8b 45 08             	mov    0x8(%ebp),%eax
  68:	a3 00 00 00 00       	mov    %eax,0x0
			69: R_386_32	.bss
    csr_y = y;
  6d:	8b 45 0c             	mov    0xc(%ebp),%eax
  70:	a3 04 00 00 00       	mov    %eax,0x4
			71: R_386_32	.bss

    position = csr_y * CONSOLE_WIDTH + csr_x;
  75:	a1 04 00 00 00       	mov    0x4,%eax
			76: R_386_32	.bss
  7a:	89 c2                	mov    %eax,%edx
  7c:	89 d0                	mov    %edx,%eax
  7e:	c1 e0 02             	shl    $0x2,%eax
  81:	01 d0                	add    %edx,%eax
  83:	c1 e0 04             	shl    $0x4,%eax
  86:	89 c2                	mov    %eax,%edx
  88:	a1 00 00 00 00       	mov    0x0,%eax
			89: R_386_32	.bss
  8d:	01 d0                	add    %edx,%eax
  8f:	66 89 45 f6          	mov    %ax,-0xa(%ebp)

    outb(0x0f, 0x3d4);
  93:	c7 44 24 04 d4 03 00 	movl   $0x3d4,0x4(%esp)
  9a:	00 
  9b:	c7 04 24 0f 00 00 00 	movl   $0xf,(%esp)
  a2:	e8 fc ff ff ff       	call   a3 <set_cursor+0x44>
			a3: R_386_PC32	outb
    outb((u8int)(position & 0xff), 0x3d5);
  a7:	0f b7 45 f6          	movzwl -0xa(%ebp),%eax
  ab:	0f b6 c0             	movzbl %al,%eax
  ae:	c7 44 24 04 d5 03 00 	movl   $0x3d5,0x4(%esp)
  b5:	00 
  b6:	89 04 24             	mov    %eax,(%esp)
  b9:	e8 fc ff ff ff       	call   ba <set_cursor+0x5b>
			ba: R_386_PC32	outb
    outb(0x0e, 0x3d4);
  be:	c7 44 24 04 d4 03 00 	movl   $0x3d4,0x4(%esp)
  c5:	00 
  c6:	c7 04 24 0e 00 00 00 	movl   $0xe,(%esp)
  cd:	e8 fc ff ff ff       	call   ce <set_cursor+0x6f>
			ce: R_386_PC32	outb
    outb((u8int)((position >> 8) & 0xff), 0x3d5);
  d2:	0f b7 45 f6          	movzwl -0xa(%ebp),%eax
  d6:	66 c1 e8 08          	shr    $0x8,%ax
  da:	0f b6 c0             	movzbl %al,%eax
  dd:	c7 44 24 04 d5 03 00 	movl   $0x3d5,0x4(%esp)
  e4:	00 
  e5:	89 04 24             	mov    %eax,(%esp)
  e8:	e8 fc ff ff ff       	call   e9 <set_cursor+0x8a>
			e9: R_386_PC32	outb
}
  ed:	c9                   	leave  
  ee:	c3                   	ret    

000000ef <get_cursor>:

void get_cursor(int *x, int *y)
{
  ef:	55                   	push   %ebp
  f0:	89 e5                	mov    %esp,%ebp
    *x = csr_x;
  f2:	8b 15 00 00 00 00    	mov    0x0,%edx
			f4: R_386_32	.bss
  f8:	8b 45 08             	mov    0x8(%ebp),%eax
  fb:	89 10                	mov    %edx,(%eax)
    *y = csr_y;
  fd:	8b 15 04 00 00 00    	mov    0x4,%edx
			ff: R_386_32	.bss
 103:	8b 45 0c             	mov    0xc(%ebp),%eax
 106:	89 10                	mov    %edx,(%eax)
}
 108:	5d                   	pop    %ebp
 109:	c3                   	ret    

0000010a <console_init>:

void console_init()
{
 10a:	55                   	push   %ebp
 10b:	89 e5                	mov    %esp,%ebp
 10d:	83 ec 18             	sub    $0x18,%esp
    clear_screen();
 110:	e8 fc ff ff ff       	call   111 <console_init+0x7>
			111: R_386_PC32	clear_screen

    set_cursor(0, 0);
 115:	c7 44 24 04 00 00 00 	movl   $0x0,0x4(%esp)
 11c:	00 
 11d:	c7 04 24 00 00 00 00 	movl   $0x0,(%esp)
 124:	e8 fc ff ff ff       	call   125 <console_init+0x1b>
			125: R_386_PC32	set_cursor
}
 129:	c9                   	leave  
 12a:	c3                   	ret    

0000012b <clear_screen>:

void clear_screen()
{
 12b:	55                   	push   %ebp
 12c:	89 e5                	mov    %esp,%ebp
 12e:	83 ec 10             	sub    $0x10,%esp
    u16int *vga_mem = (u16int *)VRAM_START;
 131:	c7 45 fc 00 80 0b 00 	movl   $0xb8000,-0x4(%ebp)
    u16int blankchar = 0x20 | (((0 << 4 ) | (15 & 0xff)) << 8);
 138:	66 c7 45 f6 20 0f    	movw   $0xf20,-0xa(%ebp)

    int count = CONSOLE_WIDTH * CONSOLE_HEIGHT;
 13e:	c7 45 f8 d0 07 00 00 	movl   $0x7d0,-0x8(%ebp)
    for (; count > 0; count--)
 145:	eb 12                	jmp    159 <clear_screen+0x2e>
        *vga_mem++ = blankchar;
 147:	8b 45 fc             	mov    -0x4(%ebp),%eax
 14a:	0f b7 55 f6          	movzwl -0xa(%ebp),%edx
 14e:	66 89 10             	mov    %dx,(%eax)
 151:	83 45 fc 02          	addl   $0x2,-0x4(%ebp)
{
    u16int *vga_mem = (u16int *)VRAM_START;
    u16int blankchar = 0x20 | (((0 << 4 ) | (15 & 0xff)) << 8);

    int count = CONSOLE_WIDTH * CONSOLE_HEIGHT;
    for (; count > 0; count--)
 155:	83 6d f8 01          	subl   $0x1,-0x8(%ebp)
 159:	83 7d f8 00          	cmpl   $0x0,-0x8(%ebp)
 15d:	7f e8                	jg     147 <clear_screen+0x1c>
        *vga_mem++ = blankchar;
}
 15f:	c9                   	leave  
 160:	c3                   	ret    

00000161 <print_c>:

void print_c(char c, CONSOLE_COLOR fg, CONSOLE_COLOR bg)
{
 161:	55                   	push   %ebp
 162:	89 e5                	mov    %esp,%ebp
 164:	83 ec 38             	sub    $0x38,%esp
 167:	8b 45 08             	mov    0x8(%ebp),%eax
 16a:	88 45 e4             	mov    %al,-0x1c(%ebp)
    u8int *dest = (u8int *)(VRAM_START + csr_y * VRAM_LINE + csr_x * CONSOLE_CHAR_SIZE);
 16d:	8b 15 04 00 00 00    	mov    0x4,%edx
			16f: R_386_32	.bss
 173:	89 d0                	mov    %edx,%eax
 175:	c1 e0 02             	shl    $0x2,%eax
 178:	01 d0                	add    %edx,%eax
 17a:	c1 e0 05             	shl    $0x5,%eax
 17d:	8d 90 00 80 0b 00    	lea    0xb8000(%eax),%edx
 183:	a1 00 00 00 00       	mov    0x0,%eax
			184: R_386_32	.bss
 188:	01 c0                	add    %eax,%eax
 18a:	01 d0                	add    %edx,%eax
 18c:	89 45 f4             	mov    %eax,-0xc(%ebp)
    u8int attr = (u8int)(bg << 4 | fg );
 18f:	8b 45 10             	mov    0x10(%ebp),%eax
 192:	89 c2                	mov    %eax,%edx
 194:	c1 e2 04             	shl    $0x4,%edx
 197:	8b 45 0c             	mov    0xc(%ebp),%eax
 19a:	09 d0                	or     %edx,%eax
 19c:	88 45 f3             	mov    %al,-0xd(%ebp)

    switch (c)
 19f:	0f be 45 e4          	movsbl -0x1c(%ebp),%eax
 1a3:	83 f8 09             	cmp    $0x9,%eax
 1a6:	74 66                	je     20e <print_c+0xad>
 1a8:	83 f8 09             	cmp    $0x9,%eax
 1ab:	7f 0e                	jg     1bb <print_c+0x5a>
 1ad:	83 f8 08             	cmp    $0x8,%eax
 1b0:	0f 84 c4 00 00 00    	je     27a <print_c+0x119>
 1b6:	e9 18 01 00 00       	jmp    2d3 <print_c+0x172>
 1bb:	83 f8 0a             	cmp    $0xa,%eax
 1be:	74 3e                	je     1fe <print_c+0x9d>
 1c0:	83 f8 0d             	cmp    $0xd,%eax
 1c3:	0f 85 0a 01 00 00    	jne    2d3 <print_c+0x172>
    {
    case '\r':
        csr_x = 0;
 1c9:	c7 05 00 00 00 00 00 	movl   $0x0,0x0
 1d0:	00 00 00 
			1cb: R_386_32	.bss
        break;
 1d3:	e9 23 01 00 00       	jmp    2fb <print_c+0x19a>
    case '\n':
        for (; csr_x < CONSOLE_WIDTH; ++csr_x)
        {
            *dest++ = BLANK_CHAR;
 1d8:	8b 45 f4             	mov    -0xc(%ebp),%eax
 1db:	c6 00 20             	movb   $0x20,(%eax)
 1de:	83 45 f4 01          	addl   $0x1,-0xc(%ebp)
            *dest++ = attr;
 1e2:	8b 45 f4             	mov    -0xc(%ebp),%eax
 1e5:	0f b6 55 f3          	movzbl -0xd(%ebp),%edx
 1e9:	88 10                	mov    %dl,(%eax)
 1eb:	83 45 f4 01          	addl   $0x1,-0xc(%ebp)
    {
    case '\r':
        csr_x = 0;
        break;
    case '\n':
        for (; csr_x < CONSOLE_WIDTH; ++csr_x)
 1ef:	a1 00 00 00 00       	mov    0x0,%eax
			1f0: R_386_32	.bss
 1f4:	83 c0 01             	add    $0x1,%eax
 1f7:	a3 00 00 00 00       	mov    %eax,0x0
			1f8: R_386_32	.bss
 1fc:	eb 01                	jmp    1ff <print_c+0x9e>
 1fe:	90                   	nop
 1ff:	a1 00 00 00 00       	mov    0x0,%eax
			200: R_386_32	.bss
 204:	83 f8 4f             	cmp    $0x4f,%eax
 207:	7e cf                	jle    1d8 <print_c+0x77>
        {
            *dest++ = BLANK_CHAR;
            *dest++ = attr;
        }
        break;
 209:	e9 ed 00 00 00       	jmp    2fb <print_c+0x19a>
    case '\t':
        c = csr_x + TAB_WIDTH - (csr_x % TAB_WIDTH);
 20e:	a1 00 00 00 00       	mov    0x0,%eax
			20f: R_386_32	.bss
 213:	89 c1                	mov    %eax,%ecx
 215:	a1 00 00 00 00       	mov    0x0,%eax
			216: R_386_32	.bss
 21a:	89 c2                	mov    %eax,%edx
 21c:	c1 fa 1f             	sar    $0x1f,%edx
 21f:	c1 ea 1e             	shr    $0x1e,%edx
 222:	01 d0                	add    %edx,%eax
 224:	83 e0 03             	and    $0x3,%eax
 227:	29 d0                	sub    %edx,%eax
 229:	89 ca                	mov    %ecx,%edx
 22b:	29 c2                	sub    %eax,%edx
 22d:	89 d0                	mov    %edx,%eax
 22f:	83 c0 04             	add    $0x4,%eax
 232:	88 45 e4             	mov    %al,-0x1c(%ebp)
        c = c < CONSOLE_WIDTH ? c : CONSOLE_WIDTH;
 235:	0f b6 45 e4          	movzbl -0x1c(%ebp),%eax
 239:	3c 50                	cmp    $0x50,%al
 23b:	7e 05                	jle    242 <print_c+0xe1>
 23d:	b8 50 00 00 00       	mov    $0x50,%eax
 242:	88 45 e4             	mov    %al,-0x1c(%ebp)
        for (; csr_x < c; ++csr_x)
 245:	eb 21                	jmp    268 <print_c+0x107>
        {
            *dest++ = (u8int)BLANK_CHAR;
 247:	8b 45 f4             	mov    -0xc(%ebp),%eax
 24a:	c6 00 20             	movb   $0x20,(%eax)
 24d:	83 45 f4 01          	addl   $0x1,-0xc(%ebp)
            *dest++ = (u8int)BLANK_ATTR;
 251:	8b 45 f4             	mov    -0xc(%ebp),%eax
 254:	c6 00 07             	movb   $0x7,(%eax)
 257:	83 45 f4 01          	addl   $0x1,-0xc(%ebp)
        }
        break;
    case '\t':
        c = csr_x + TAB_WIDTH - (csr_x % TAB_WIDTH);
        c = c < CONSOLE_WIDTH ? c : CONSOLE_WIDTH;
        for (; csr_x < c; ++csr_x)
 25b:	a1 00 00 00 00       	mov    0x0,%eax
			25c: R_386_32	.bss
 260:	83 c0 01             	add    $0x1,%eax
 263:	a3 00 00 00 00       	mov    %eax,0x0
			264: R_386_32	.bss
 268:	0f be 55 e4          	movsbl -0x1c(%ebp),%edx
 26c:	a1 00 00 00 00       	mov    0x0,%eax
			26d: R_386_32	.bss
 271:	39 c2                	cmp    %eax,%edx
 273:	7f d2                	jg     247 <print_c+0xe6>
        {
            *dest++ = (u8int)BLANK_CHAR;
            *dest++ = (u8int)BLANK_ATTR;
        }
        break;
 275:	e9 81 00 00 00       	jmp    2fb <print_c+0x19a>
    case '\b':
        if ((!csr_x) && (!csr_y))
 27a:	a1 00 00 00 00       	mov    0x0,%eax
			27b: R_386_32	.bss
 27f:	85 c0                	test   %eax,%eax
 281:	75 0d                	jne    290 <print_c+0x12f>
 283:	a1 04 00 00 00       	mov    0x4,%eax
			284: R_386_32	.bss
 288:	85 c0                	test   %eax,%eax
 28a:	0f 84 b6 00 00 00    	je     346 <print_c+0x1e5>
            return;

        if (!csr_x)
 290:	a1 00 00 00 00       	mov    0x0,%eax
			291: R_386_32	.bss
 295:	85 c0                	test   %eax,%eax
 297:	75 19                	jne    2b2 <print_c+0x151>
        {
            csr_x = CONSOLE_WIDTH - 1;
 299:	c7 05 00 00 00 00 4f 	movl   $0x4f,0x0
 2a0:	00 00 00 
			29b: R_386_32	.bss
            --csr_y;
 2a3:	a1 04 00 00 00       	mov    0x4,%eax
			2a4: R_386_32	.bss
 2a8:	83 e8 01             	sub    $0x1,%eax
 2ab:	a3 04 00 00 00       	mov    %eax,0x4
			2ac: R_386_32	.bss
 2b0:	eb 0d                	jmp    2bf <print_c+0x15e>
        } else
            --csr_x;
 2b2:	a1 00 00 00 00       	mov    0x0,%eax
			2b3: R_386_32	.bss
 2b7:	83 e8 01             	sub    $0x1,%eax
 2ba:	a3 00 00 00 00       	mov    %eax,0x0
			2bb: R_386_32	.bss

        dest[-1] = (u8int)BLANK_ATTR;
 2bf:	8b 45 f4             	mov    -0xc(%ebp),%eax
 2c2:	83 e8 01             	sub    $0x1,%eax
 2c5:	c6 00 07             	movb   $0x7,(%eax)
        dest[-2] = (u8int)BLANK_CHAR;
 2c8:	8b 45 f4             	mov    -0xc(%ebp),%eax
 2cb:	83 e8 02             	sub    $0x2,%eax
 2ce:	c6 00 20             	movb   $0x20,(%eax)
        break;
 2d1:	eb 28                	jmp    2fb <print_c+0x19a>
    default:
        *dest++ = c;
 2d3:	0f b6 55 e4          	movzbl -0x1c(%ebp),%edx
 2d7:	8b 45 f4             	mov    -0xc(%ebp),%eax
 2da:	88 10                	mov    %dl,(%eax)
 2dc:	83 45 f4 01          	addl   $0x1,-0xc(%ebp)
        *dest++ = attr;
 2e0:	8b 45 f4             	mov    -0xc(%ebp),%eax
 2e3:	0f b6 55 f3          	movzbl -0xd(%ebp),%edx
 2e7:	88 10                	mov    %dl,(%eax)
 2e9:	83 45 f4 01          	addl   $0x1,-0xc(%ebp)
        ++csr_x;
 2ed:	a1 00 00 00 00       	mov    0x0,%eax
			2ee: R_386_32	.bss
 2f2:	83 c0 01             	add    $0x1,%eax
 2f5:	a3 00 00 00 00       	mov    %eax,0x0
			2f6: R_386_32	.bss
        break;
 2fa:	90                   	nop
    }

    if (csr_x >= CONSOLE_WIDTH)
 2fb:	a1 00 00 00 00       	mov    0x0,%eax
			2fc: R_386_32	.bss
 300:	83 f8 4f             	cmp    $0x4f,%eax
 303:	7e 28                	jle    32d <print_c+0x1cc>
    {
        csr_x = 0;
 305:	c7 05 00 00 00 00 00 	movl   $0x0,0x0
 30c:	00 00 00 
			307: R_386_32	.bss
        if (csr_y < (CONSOLE_HEIGHT - 1))
 30f:	a1 04 00 00 00       	mov    0x4,%eax
			310: R_386_32	.bss
 314:	83 f8 17             	cmp    $0x17,%eax
 317:	7f 0f                	jg     328 <print_c+0x1c7>
            csr_y++;
 319:	a1 04 00 00 00       	mov    0x4,%eax
			31a: R_386_32	.bss
 31e:	83 c0 01             	add    $0x1,%eax
 321:	a3 04 00 00 00       	mov    %eax,0x4
			322: R_386_32	.bss
 326:	eb 05                	jmp    32d <print_c+0x1cc>
        else
            scroll_down();
 328:	e8 d3 fc ff ff       	call   0 <scroll_down>
    }

    set_cursor(csr_x, csr_y);
 32d:	8b 15 04 00 00 00    	mov    0x4,%edx
			32f: R_386_32	.bss
 333:	a1 00 00 00 00       	mov    0x0,%eax
			334: R_386_32	.bss
 338:	89 54 24 04          	mov    %edx,0x4(%esp)
 33c:	89 04 24             	mov    %eax,(%esp)
 33f:	e8 fc ff ff ff       	call   340 <print_c+0x1df>
			340: R_386_PC32	set_cursor
 344:	eb 01                	jmp    347 <print_c+0x1e6>
            *dest++ = (u8int)BLANK_ATTR;
        }
        break;
    case '\b':
        if ((!csr_x) && (!csr_y))
            return;
 346:	90                   	nop
        else
            scroll_down();
    }

    set_cursor(csr_x, csr_y);
}
 347:	c9                   	leave  
 348:	c3                   	ret    
